target datalayout = "e-m:e-p270:32:32-p271:32:32-p272:64:64-i64:64-i128:128-f80:128-n8:16:32:64-S128"
target triple = "x86_64-pc-linux-gnu"

%struct.Curl_easy = type { i32, i64, i64, ptr, %struct.Curl_llist_node, %struct.Curl_llist_node, i32, i32, %struct.Curl_message, %struct.easy_pollset, %struct.Names, ptr, ptr, ptr, %struct.SingleRequest, %struct.UserDefined, ptr, ptr, %struct.Progress, %struct.UrlState, ptr, %struct.PureInfo, %struct.curl_tlssessioninfo }
%struct.Curl_llist_node = type { ptr, ptr, ptr, ptr }
%struct.Curl_message = type { %struct.Curl_llist_node, %struct.CURLMsg }
%struct.CURLMsg = type { i32, ptr, %union.anon }
%union.anon = type { ptr }
%struct.easy_pollset = type { [5 x i32], i32, [5 x i8] }
%struct.Names = type { ptr, i32 }
%struct.SingleRequest = type <{ i64, i64, i64, i64, %struct.curltime, i32, i32, i32, i32, i64, i32, i32, i32, i32, ptr, ptr, %struct.bufq, i64, i64, ptr, ptr, %union.anon.0, ptr, i8, i32, [3 x i8] }>
%struct.curltime = type { i64, i32 }
%struct.bufq = type { ptr, ptr, ptr, ptr, i64, i64, i64, i32 }
%union.anon.0 = type { ptr }
%struct.UserDefined = type <{ ptr, ptr, ptr, ptr, ptr, ptr, i16, [6 x i8], i64, i64, i64, ptr, ptr, i64, i16, i16, [4 x i8], ptr, ptr, ptr, ptr, ptr, ptr, ptr, ptr, ptr, ptr, ptr, ptr, ptr, ptr, ptr, ptr, ptr, ptr, ptr, ptr, ptr, ptr, ptr, i32, i32, i32, i32, i32, [4 x i8], i64, i64, i64, i64, i64, i64, i64, i64, ptr, ptr, %struct.curl_mimepart, ptr, ptr, i64, i8, i8, i8, [5 x i8], %struct.ssl_config_data, %struct.ssl_config_data, ptr, i16, i8, i8, [4 x i8], %struct.ssl_general_config, i32, i32, i32, [4 x i8], ptr, ptr, i8, [7 x i8], i64, i8, i8, i8, i8, i32, ptr, ptr, ptr, i8, i8, [2 x i8], i32, [63 x ptr], [8 x ptr], i32, i32, i32, [4 x i8], ptr, ptr, ptr, ptr, ptr, i8, [3 x i8], i32, i32, i32, i64, %struct.Curl_data_priority, ptr, ptr, i64, ptr, i64, ptr, ptr, ptr, i8, [3 x i8], i32, i8, i8, i64, [6 x i8] }>
%struct.curl_mimepart = type { ptr, ptr, i32, i32, ptr, ptr, ptr, ptr, ptr, ptr, ptr, ptr, ptr, ptr, ptr, i64, %struct.mime_state, ptr, %struct.mime_encoder_state, i64 }
%struct.mime_state = type { i32, ptr, i64 }
%struct.mime_encoder_state = type { i64, i64, i64, [256 x i8] }
%struct.ssl_config_data = type { %struct.ssl_primary_config, i64, ptr, ptr, ptr, ptr, ptr, ptr, ptr, i16 }
%struct.ssl_primary_config = type { ptr, ptr, ptr, ptr, ptr, ptr, ptr, ptr, ptr, ptr, ptr, ptr, i8, i32, i8, i8 }
%struct.ssl_general_config = type { i64, i32 }
%struct.Curl_data_priority = type { ptr, ptr, i32, i8 }
%struct.Progress = type { i64, %struct.pgrs_dir, %struct.pgrs_dir, i64, i64, i32, i32, i64, i64, i64, i64, i64, i64, i64, i64, i64, %struct.curltime, %struct.curltime, %struct.curltime, %struct.curltime, [6 x i64], [6 x %struct.curltime], i32, i8 }
%struct.pgrs_dir = type { i64, i64, i64, %struct.pgrs_measure }
%struct.pgrs_measure = type { %struct.curltime, i64 }
%struct.UrlState = type { %struct.curltime, i64, i64, %struct.dynbuf, ptr, i64, ptr, i32, i32, i32, ptr, i64, i32, i64, i32, ptr, %struct.digestdata, %struct.digestdata, %struct.auth, %struct.auth, %struct.Curl_async, ptr, %struct.curltime, %struct.Curl_tree, %struct.Curl_llist, [15 x %struct.time_node], ptr, ptr, i64, i64, %struct.Curl_data_priority, ptr, ptr, ptr, %struct.urlpieces, ptr, ptr, ptr, ptr, ptr, i64, %struct.dynbuf, %struct.Curl_llist, [2 x %struct.curl_header], ptr, i32, ptr, ptr, %struct.store_netrc, %struct.dynamically_allocated_data, i8, i8, i8, i8, i32 }
%struct.digestdata = type { ptr, ptr, ptr, ptr, ptr, ptr, i32, i8, i8 }
%struct.auth = type { i64, i64, i64, i8 }
%struct.Curl_async = type { ptr, ptr, ptr, ptr, i32, i32, i8 }
%struct.Curl_tree = type { ptr, ptr, ptr, ptr, %struct.curltime, ptr }
%struct.time_node = type { %struct.Curl_llist_node, %struct.curltime, i32 }
%struct.urlpieces = type { ptr, ptr, ptr, ptr, ptr, ptr, ptr, ptr }
%struct.dynbuf = type { ptr, i64, i64, i64 }
%struct.Curl_llist = type { ptr, ptr, ptr, i64 }
%struct.curl_header = type { ptr, ptr, i64, i64, i32, ptr }
%struct.store_netrc = type { %struct.dynbuf, ptr, i8 }
%struct.dynamically_allocated_data = type { ptr, ptr, ptr, ptr, ptr, ptr, ptr, ptr, ptr, ptr, ptr, ptr, ptr }
%struct.PureInfo = type { i32, i32, i32, i64, i64, i64, i64, i64, ptr, ptr, i64, i32, %struct.ip_quadruple, i32, ptr, i32, %struct.curl_certinfo, i32, i8 }
%struct.ip_quadruple = type { [46 x i8], [46 x i8], i32, i32 }
%struct.curl_certinfo = type { i32, ptr }
%struct.curl_tlssessioninfo = type { i32, ptr }

; Function Attrs: nounwind uwtable
define dso_local void @Curl_pgrsSetUploadSize(ptr noundef %0, i64 noundef %1) #0 {
  %3 = alloca ptr, align 8
  %4 = alloca i64, align 8
  store ptr %0, ptr %3, align 8, !tbaa !4
  store i64 %1, ptr %4, align 8, !tbaa !86
  %5 = load i64, ptr %4, align 8, !tbaa !86
  %6 = icmp sge i64 %5, 0
  br i1 %6, label %7, label %18

7:                                                ; preds = %2
  %8 = load i64, ptr %4, align 8, !tbaa !86
  %9 = load ptr, ptr %3, align 8, !tbaa !4
  %10 = getelementptr inbounds nuw %struct.Curl_easy, ptr %9, i32 0, i32 18
  %11 = getelementptr inbounds nuw %struct.Progress, ptr %10, i32 0, i32 1
  %12 = getelementptr inbounds nuw %struct.pgrs_dir, ptr %11, i32 0, i32 0
  store i64 %8, ptr %12, align 8, !tbaa !88
  %13 = load ptr, ptr %3, align 8, !tbaa !4
  %14 = getelementptr inbounds nuw %struct.Curl_easy, ptr %13, i32 0, i32 18
  %15 = getelementptr inbounds nuw %struct.Progress, ptr %14, i32 0, i32 6
  %16 = load i32, ptr %15, align 4, !tbaa !79
  %17 = or i32 %16, 32
  store i32 %17, ptr %15, align 4, !tbaa !79
  br label %28

18:                                               ; preds = %2
  %19 = load ptr, ptr %3, align 8, !tbaa !4
  %20 = getelementptr inbounds nuw %struct.Curl_easy, ptr %19, i32 0, i32 18
  %21 = getelementptr inbounds nuw %struct.Progress, ptr %20, i32 0, i32 1
  %22 = getelementptr inbounds nuw %struct.pgrs_dir, ptr %21, i32 0, i32 0
  store i64 0, ptr %22, align 8, !tbaa !88
  %23 = load ptr, ptr %3, align 8, !tbaa !4
  %24 = getelementptr inbounds nuw %struct.Curl_easy, ptr %23, i32 0, i32 18
  %25 = getelementptr inbounds nuw %struct.Progress, ptr %24, i32 0, i32 6
  %26 = load i32, ptr %25, align 4, !tbaa !79
  %27 = and i32 %26, -33
  store i32 %27, ptr %25, align 4, !tbaa !79
  br label %28

28:                                               ; preds = %18, %7
  ret void
}

; Function Attrs: nounwind uwtable
define dso_local void @Curl_pgrsSetDownloadSize(ptr noundef %0, i64 noundef %1) #0 {
  %3 = alloca ptr, align 8
  %4 = alloca i64, align 8
  store ptr %0, ptr %3, align 8, !tbaa !4
  store i64 %1, ptr %4, align 8, !tbaa !86
  %5 = load i64, ptr %4, align 8, !tbaa !86
  %6 = icmp sge i64 %5, 0
  br i1 %6, label %7, label %18

7:                                                ; preds = %2
  %8 = load i64, ptr %4, align 8, !tbaa !86
  %9 = load ptr, ptr %3, align 8, !tbaa !4
  %10 = getelementptr inbounds nuw %struct.Curl_easy, ptr %9, i32 0, i32 18
  %11 = getelementptr inbounds nuw %struct.Progress, ptr %10, i32 0, i32 2
  %12 = getelementptr inbounds nuw %struct.pgrs_dir, ptr %11, i32 0, i32 0
  store i64 %8, ptr %12, align 8, !tbaa !87
  %13 = load ptr, ptr %3, align 8, !tbaa !4
  %14 = getelementptr inbounds nuw %struct.Curl_easy, ptr %13, i32 0, i32 18
  %15 = getelementptr inbounds nuw %struct.Progress, ptr %14, i32 0, i32 6
  %16 = load i32, ptr %15, align 4, !tbaa !79
  %17 = or i32 %16, 64
  store i32 %17, ptr %15, align 4, !tbaa !79
  br label %28

18:                                               ; preds = %2
  %19 = load ptr, ptr %3, align 8, !tbaa !4
  %20 = getelementptr inbounds nuw %struct.Curl_easy, ptr %19, i32 0, i32 18
  %21 = getelementptr inbounds nuw %struct.Progress, ptr %20, i32 0, i32 2
  %22 = getelementptr inbounds nuw %struct.pgrs_dir, ptr %21, i32 0, i32 0
  store i64 0, ptr %22, align 8, !tbaa !87
  %23 = load ptr, ptr %3, align 8, !tbaa !4
  %24 = getelementptr inbounds nuw %struct.Curl_easy, ptr %23, i32 0, i32 18
  %25 = getelementptr inbounds nuw %struct.Progress, ptr %24, i32 0, i32 6
  %26 = load i32, ptr %25, align 4, !tbaa !79
  %27 = and i32 %26, -65
  store i32 %27, ptr %25, align 4, !tbaa !79
  br label %28

28:                                               ; preds = %18, %7
  ret void
}

; Function Attrs: nounwind uwtable
define dso_local void @Curl_pgrsResetTransferSizes(ptr noundef %0) #0 {
  %2 = alloca ptr, align 8
  store ptr %0, ptr %2, align 8, !tbaa !4
  %3 = load ptr, ptr %2, align 8, !tbaa !4
  call void @Curl_pgrsSetDownloadSize(ptr noundef %3, i64 noundef -1)
  %4 = load ptr, ptr %2, align 8, !tbaa !4
  call void @Curl_pgrsSetUploadSize(ptr noundef %4, i64 noundef -1)
  ret void
}