; Function Attrs: mustprogress nofree norecurse nosync nounwind willreturn memory(argmem: readwrite) uwtable
define dso_local void @Curl_pgrsResetTransferSizes(ptr noundef captures(none) initializes((2600, 2608), (2648, 2656)) %0) local_unnamed_addr #3 {
  %2 = getelementptr inbounds nuw i8, ptr %0, i64 2648
  %3 = getelementptr inbounds nuw i8, ptr %0, i64 2716
  store i64 0, ptr %2, align 8, !tbaa !82
  %4 = load i32, ptr %3, align 4, !tbaa !77
  %5 = getelementptr inbounds nuw i8, ptr %0, i64 2600
  store i64 0, ptr %5, align 8, !tbaa !84
  %6 = and i32 %4, -97
  store i32 %6, ptr %3, align 4, !tbaa !77
  ret void
}